target datalayout = "e-m:e-p270:32:32-p271:32:32-p272:64:64-i64:64-i128:128-f80:128-n8:16:32:64-S128"
target triple = "x86_64-unknown-linux-gnu"

%"class.QuantLib::BrownianGeneratorFactory" = type { ptr }
%"class.QuantLib::Burley2020SobolBrownianGeneratorFactory" = type { %"class.QuantLib::BrownianGeneratorFactory", i32, i64, i32, i64 }

; Function Attrs: inlinehint mustprogress nounwind uwtable
define linkonce_odr void @_ZN8QuantLib24BrownianGeneratorFactoryC2Ev(ptr noundef nonnull align 8 dereferenceable(8) %this) unnamed_addr #1 comdat align 2 {
entry:
  %this.addr = alloca ptr, align 8
  store ptr %this, ptr %this.addr, align 8, !tbaa !3
  %this1 = load ptr, ptr %this.addr, align 8
  store ptr getelementptr inbounds inrange(-16, 24) ({ [5 x ptr] }, ptr @_ZTVN8QuantLib24BrownianGeneratorFactoryE, i32 0, i32 0, i32 2), ptr %this1, align 8, !tbaa !11
  ret void
}

; Function Attrs: mustprogress nounwind uwtable
define void @_ZN8QuantLib39Burley2020SobolBrownianGeneratorFactoryC2ENS_26SobolBrownianGeneratorBase8OrderingEmNS_8SobolRsg17DirectionIntegersEm(ptr noundef nonnull align 8 dereferenceable(40) %this, i32 noundef %ordering, i64 noundef %seed, i32 noundef %integers, i64 noundef %scrambleSeed) unnamed_addr #4 align 2 {
entry:
  %this.addr = alloca ptr, align 8
  %ordering.addr = alloca i32, align 4
  %seed.addr = alloca i64, align 8
  %integers.addr = alloca i32, align 4
  %scrambleSeed.addr = alloca i64, align 8
  store ptr %this, ptr %this.addr, align 8, !tbaa !3
  store i32 %ordering, ptr %ordering.addr, align 4, !tbaa !9
  store i64 %seed, ptr %seed.addr, align 8, !tbaa !7
  store i32 %integers, ptr %integers.addr, align 4, !tbaa !67
  store i64 %scrambleSeed, ptr %scrambleSeed.addr, align 8, !tbaa !7
  %this1 = load ptr, ptr %this.addr, align 8
  call void @_ZN8QuantLib24BrownianGeneratorFactoryC2Ev(ptr noundef nonnull align 8 dereferenceable(8) %this1) #16
  store ptr getelementptr inbounds inrange(-16, 24) ({ [5 x ptr] }, ptr @_ZTVN8QuantLib39Burley2020SobolBrownianGeneratorFactoryE, i32 0, i32 0, i32 2), ptr %this1, align 8, !tbaa !11
  %ordering_ = getelementptr inbounds nuw %"class.QuantLib::Burley2020SobolBrownianGeneratorFactory", ptr %this1, i32 0, i32 1
  %0 = load i32, ptr %ordering.addr, align 4, !tbaa !9
  store i32 %0, ptr %ordering_, align 8, !tbaa !102
  %seed_ = getelementptr inbounds nuw %"class.QuantLib::Burley2020SobolBrownianGeneratorFactory", ptr %this1, i32 0, i32 2
  %1 = load i64, ptr %seed.addr, align 8, !tbaa !7
  store i64 %1, ptr %seed_, align 8, !tbaa !104
  %integers_ = getelementptr inbounds nuw %"class.QuantLib::Burley2020SobolBrownianGeneratorFactory", ptr %this1, i32 0, i32 3
  %2 = load i32, ptr %integers.addr, align 4, !tbaa !67
  store i32 %2, ptr %integers_, align 8, !tbaa !105
  %scrambleSeed_ = getelementptr inbounds nuw %"class.QuantLib::Burley2020SobolBrownianGeneratorFactory", ptr %this1, i32 0, i32 4
  %3 = load i64, ptr %scrambleSeed.addr, align 8, !tbaa !7
  store i64 %3, ptr %scrambleSeed_, align 8, !tbaa !106
  ret void
}