; Function Attrs: mustprogress nofree norecurse nosync nounwind willreturn memory(argmem: write) uwtable
define void @_ZN8QuantLib39Burley2020SobolBrownianGeneratorFactoryC2ENS_26SobolBrownianGeneratorBase8OrderingEmNS_8SobolRsg17DirectionIntegersEm(ptr nocapture noundef nonnull writeonly align 8 dereferenceable(40) %this, i32 noundef %ordering, i64 noundef %seed, i32 noundef %integers, i64 noundef %scrambleSeed) unnamed_addr #10 align 2 {
entry:
  store ptr getelementptr inbounds inrange(-16, 24) (i8, ptr @_ZTVN8QuantLib39Burley2020SobolBrownianGeneratorFactoryE, i64 16), ptr %this, align 8, !tbaa !3
  %ordering_ = getelementptr inbounds nuw i8, ptr %this, i64 8
  store i32 %ordering, ptr %ordering_, align 8, !tbaa !131
  %seed_ = getelementptr inbounds nuw i8, ptr %this, i64 16
  store i64 %seed, ptr %seed_, align 8, !tbaa !133
  %integers_ = getelementptr inbounds nuw i8, ptr %this, i64 24
  store i32 %integers, ptr %integers_, align 8, !tbaa !134
  %scrambleSeed_ = getelementptr inbounds nuw i8, ptr %this, i64 32
  store i64 %scrambleSeed, ptr %scrambleSeed_, align 8, !tbaa !135
  ret void
}